target datalayout = "e-m:e-p270:32:32-p271:32:32-p272:64:64-i64:64-i128:128-f80:128-n8:16:32:64-S128"
target triple = "x86_64-pc-linux-gnu"

%struct.mlib_image = type { i32, i32, i32, i32, i32, i32, ptr, ptr, [4 x i8], i32, i32, [3 x i32] }

; Function Attrs: nounwind uwtable
define hidden i32 @mlib_ImageSetPaddings(ptr noundef %0, i8 noundef zeroext %1, i8 noundef zeroext %2, i8 noundef zeroext %3, i8 noundef zeroext %4) #0 {
  %6 = alloca i32, align 4
  %7 = alloca ptr, align 8
  %8 = alloca i8, align 1
  %9 = alloca i8, align 1
  %10 = alloca i8, align 1
  %11 = alloca i8, align 1
  store ptr %0, ptr %7, align 8
  store i8 %1, ptr %8, align 1
  store i8 %2, ptr %9, align 1
  store i8 %3, ptr %10, align 1
  store i8 %4, ptr %11, align 1
  %12 = load ptr, ptr %7, align 8
  %13 = icmp eq ptr %12, null
  br i1 %13, label %14, label %15

14:                                               ; preds = %5
  store i32 1, ptr %6, align 4
  br label %53

15:                                               ; preds = %5
  %16 = load i8, ptr %8, align 1
  %17 = zext i8 %16 to i32
  %18 = load i8, ptr %10, align 1
  %19 = zext i8 %18 to i32
  %20 = add nsw i32 %17, %19
  %21 = load ptr, ptr %7, align 8
  %22 = getelementptr inbounds %struct.mlib_image, ptr %21, i32 0, i32 2
  %23 = load i32, ptr %22, align 8
  %24 = icmp sge i32 %20, %23
  br i1 %24, label %35, label %25

25:                                               ; preds = %15
  %26 = load i8, ptr %9, align 1
  %27 = zext i8 %26 to i32
  %28 = load i8, ptr %11, align 1
  %29 = zext i8 %28 to i32
  %30 = add nsw i32 %27, %29
  %31 = load ptr, ptr %7, align 8
  %32 = getelementptr inbounds %struct.mlib_image, ptr %31, i32 0, i32 3
  %33 = load i32, ptr %32, align 4
  %34 = icmp sge i32 %30, %33
  br i1 %34, label %35, label %36

35:                                               ; preds = %25, %15
  store i32 3, ptr %6, align 4
  br label %53

36:                                               ; preds = %25
  %37 = load i8, ptr %8, align 1
  %38 = load ptr, ptr %7, align 8
  %39 = getelementptr inbounds %struct.mlib_image, ptr %38, i32 0, i32 8
  %40 = getelementptr inbounds [4 x i8], ptr %39, i64 0, i64 0
  store i8 %37, ptr %40, align 8
  %41 = load i8, ptr %9, align 1
  %42 = load ptr, ptr %7, align 8
  %43 = getelementptr inbounds %struct.mlib_image, ptr %42, i32 0, i32 8
  %44 = getelementptr inbounds [4 x i8], ptr %43, i64 0, i64 1
  store i8 %41, ptr %44, align 1
  %45 = load i8, ptr %10, align 1
  %46 = load ptr, ptr %7, align 8
  %47 = getelementptr inbounds %struct.mlib_image, ptr %46, i32 0, i32 8
  %48 = getelementptr inbounds [4 x i8], ptr %47, i64 0, i64 2
  store i8 %45, ptr %48, align 2
  %49 = load i8, ptr %11, align 1
  %50 = load ptr, ptr %7, align 8
  %51 = getelementptr inbounds %struct.mlib_image, ptr %50, i32 0, i32 8
  %52 = getelementptr inbounds [4 x i8], ptr %51, i64 0, i64 3
  store i8 %49, ptr %52, align 1
  store i32 0, ptr %6, align 4
  br label %53

53:                                               ; preds = %36, %35, %14
  %54 = load i32, ptr %6, align 4
  ret i32 %54
}