; Function Attrs: mustprogress nofree norecurse nosync nounwind willreturn memory(argmem: readwrite) uwtable
define hidden range(i32 0, 4) i32 @mlib_ImageSetPaddings(ptr noundef %0, i8 noundef zeroext %1, i8 noundef zeroext %2, i8 noundef zeroext %3, i8 noundef zeroext %4) local_unnamed_addr #4 {
  %6 = icmp eq ptr %0, null
  br i1 %6, label %24, label %7

7:                                                ; preds = %5
  %8 = zext i8 %1 to i32
  %9 = zext i8 %3 to i32
  %10 = add nuw nsw i32 %9, %8
  %11 = getelementptr inbounds i8, ptr %0, i64 8
  %12 = load i32, ptr %11, align 8
  %.not = icmp slt i32 %10, %12
  br i1 %.not, label %13, label %24

13:                                               ; preds = %7
  %14 = zext i8 %2 to i32
  %15 = zext i8 %4 to i32
  %16 = add nuw nsw i32 %15, %14
  %17 = getelementptr inbounds i8, ptr %0, i64 12
  %18 = load i32, ptr %17, align 4
  %.not16 = icmp slt i32 %16, %18
  br i1 %.not16, label %19, label %24

19:                                               ; preds = %13
  %20 = getelementptr inbounds i8, ptr %0, i64 40
  store i8 %1, ptr %20, align 8
  %21 = getelementptr inbounds i8, ptr %0, i64 41
  store i8 %2, ptr %21, align 1
  %22 = getelementptr inbounds i8, ptr %0, i64 42
  store i8 %3, ptr %22, align 2
  %23 = getelementptr inbounds i8, ptr %0, i64 43
  store i8 %4, ptr %23, align 1
  br label %24

24:                                               ; preds = %7, %13, %5, %19
  %.0 = phi i32 [ 0, %19 ], [ 1, %5 ], [ 3, %13 ], [ 3, %7 ]
  ret i32 %.0
}